; ModuleID = '37/1882.c'
source_filename = "37/1882.c"
target datalayout = "e-m:e-p270:32:32-p271:32:32-p272:64:64-i64:64-f80:128-n8:16:32:64-S128"
target triple = "x86_64-pc-linux-gnu"

@.str = private unnamed_addr constant [3 x i8] c"%d\00", align 1
@.str.1 = private unnamed_addr constant [3 x i8] c"%s\00", align 1
@.str.2 = private unnamed_addr constant [4 x i8] c"%c\0A\00", align 1
@.str.3 = private unnamed_addr constant [4 x i8] c"no\0A\00", align 1

; Function Attrs: noinline nounwind uwtable
define dso_local i32 @main() #0 {
  %1 = alloca i32, align 4
  %2 = alloca i32, align 4
  %3 = alloca i32, align 4
  %4 = alloca i32, align 4
  %5 = alloca i32, align 4
  %6 = alloca i32, align 4
  %7 = alloca [27 x i32], align 16
  %8 = alloca i32, align 4
  %9 = alloca [1000001 x i8], align 16
  %10 = alloca [27 x i8], align 16
  store i32 0, i32* %1, align 4
  %11 = call i32 (i8*, ...) @__isoc99_scanf(i8* getelementptr inbounds ([3 x i8], [3 x i8]* @.str, i64 0, i64 0), i32* %2)
  br label %12

12:                                               ; preds = %119, %0
  %13 = load i32, i32* %2, align 4
  %14 = icmp sgt i32 %13, 0
  br i1 %14, label %15, label %122

15:                                               ; preds = %12
  %16 = getelementptr inbounds [1000001 x i8], [1000001 x i8]* %9, i64 0, i64 0
  %17 = call i32 (i8*, ...) @__isoc99_scanf(i8* getelementptr inbounds ([3 x i8], [3 x i8]* @.str.1, i64 0, i64 0), i8* %16)
  %18 = getelementptr inbounds [1000001 x i8], [1000001 x i8]* %9, i64 0, i64 0
  %19 = call i64 @strlen(i8* %18) #3
  %20 = trunc i64 %19 to i32
  store i32 %20, i32* %5, align 4
  store i32 0, i32* %4, align 4
  br label %21

21:                                               ; preds = %28, %15
  %22 = load i32, i32* %4, align 4
  %23 = icmp slt i32 %22, 27
  br i1 %23, label %24, label %31

24:                                               ; preds = %21
  %25 = load i32, i32* %4, align 4
  %26 = sext i32 %25 to i64
  %27 = getelementptr inbounds [27 x i32], [27 x i32]* %7, i64 0, i64 %26
  store i32 1, i32* %27, align 4
  br label %28

28:                                               ; preds = %24
  %29 = load i32, i32* %4, align 4
  %30 = add nsw i32 %29, 1
  store i32 %30, i32* %4, align 4
  br label %21

31:                                               ; preds = %21
  store i32 0, i32* %4, align 4
  store i32 0, i32* %6, align 4
  br label %32

32:                                               ; preds = %87, %31
  %33 = load i32, i32* %4, align 4
  %34 = load i32, i32* %5, align 4
  %35 = icmp slt i32 %33, %34
  br i1 %35, label %36, label %90

36:                                               ; preds = %32
  %37 = load i32, i32* %4, align 4
  %38 = sext i32 %37 to i64
  %39 = getelementptr inbounds [1000001 x i8], [1000001 x i8]* %9, i64 0, i64 %38
  %40 = load i8, i8* %39, align 1
  %41 = sext i8 %40 to i32
  %42 = icmp eq i32 %41, 48
  br i1 %42, label %43, label %44

43:                                               ; preds = %36
  br label %87

44:                                               ; preds = %36
  %45 = load i32, i32* %4, align 4
  %46 = sext i32 %45 to i64
  %47 = getelementptr inbounds [1000001 x i8], [1000001 x i8]* %9, i64 0, i64 %46
  %48 = load i8, i8* %47, align 1
  %49 = load i32, i32* %6, align 4
  %50 = sext i32 %49 to i64
  %51 = getelementptr inbounds [27 x i8], [27 x i8]* %10, i64 0, i64 %50
  store i8 %48, i8* %51, align 1
  %52 = load i32, i32* %4, align 4
  %53 = add nsw i32 %52, 1
  store i32 %53, i32* %3, align 4
  br label %54

54:                                               ; preds = %80, %44
  %55 = load i32, i32* %3, align 4
  %56 = load i32, i32* %5, align 4
  %57 = icmp slt i32 %55, %56
  br i1 %57, label %58, label %83

58:                                               ; preds = %54
  %59 = load i32, i32* %3, align 4
  %60 = sext i32 %59 to i64
  %61 = getelementptr inbounds [1000001 x i8], [1000001 x i8]* %9, i64 0, i64 %60
  %62 = load i8, i8* %61, align 1
  %63 = sext i8 %62 to i32
  %64 = load i32, i32* %4, align 4
  %65 = sext i32 %64 to i64
  %66 = getelementptr inbounds [1000001 x i8], [1000001 x i8]* %9, i64 0, i64 %65
  %67 = load i8, i8* %66, align 1
  %68 = sext i8 %67 to i32
  %69 = icmp eq i32 %63, %68
  br i1 %69, label %70, label %79

70:                                               ; preds = %58
  %71 = load i32, i32* %3, align 4
  %72 = sext i32 %71 to i64
  %73 = getelementptr inbounds [1000001 x i8], [1000001 x i8]* %9, i64 0, i64 %72
  store i8 48, i8* %73, align 1
  %74 = load i32, i32* %6, align 4
  %75 = sext i32 %74 to i64
  %76 = getelementptr inbounds [27 x i32], [27 x i32]* %7, i64 0, i64 %75
  %77 = load i32, i32* %76, align 4
  %78 = add nsw i32 %77, 1
  store i32 %78, i32* %76, align 4
  br label %79

79:                                               ; preds = %70, %58
  br label %80

80:                                               ; preds = %79
  %81 = load i32, i32* %3, align 4
  %82 = add nsw i32 %81, 1
  store i32 %82, i32* %3, align 4
  br label %54

83:                                               ; preds = %54
  %84 = load i32, i32* %6, align 4
  %85 = add nsw i32 %84, 1
  store i32 %85, i32* %6, align 4
  br label %86

86:                                               ; preds = %83
  br label %87

87:                                               ; preds = %86, %43
  %88 = load i32, i32* %4, align 4
  %89 = add nsw i32 %88, 1
  store i32 %89, i32* %4, align 4
  br label %32

90:                                               ; preds = %32
  store i32 0, i32* %4, align 4
  store i32 0, i32* %8, align 4
  br label %91

91:                                               ; preds = %111, %90
  %92 = load i32, i32* %4, align 4
  %93 = load i32, i32* %6, align 4
  %94 = icmp slt i32 %92, %93
  br i1 %94, label %95, label %114

95:                                               ; preds = %91
  %96 = load i32, i32* %4, align 4
  %97 = sext i32 %96 to i64
  %98 = getelementptr inbounds [27 x i32], [27 x i32]* %7, i64 0, i64 %97
  %99 = load i32, i32* %98, align 4
  %100 = icmp eq i32 %99, 1
  br i1 %100, label %101, label %110

101:                                              ; preds = %95
  %102 = load i32, i32* %4, align 4
  %103 = sext i32 %102 to i64
  %104 = getelementptr inbounds [27 x i8], [27 x i8]* %10, i64 0, i64 %103
  %105 = load i8, i8* %104, align 1
  %106 = sext i8 %105 to i32
  %107 = call i32 (i8*, ...) @printf(i8* getelementptr inbounds ([4 x i8], [4 x i8]* @.str.2, i64 0, i64 0), i32 %106)
  %108 = load i32, i32* %8, align 4
  %109 = add nsw i32 %108, 1
  store i32 %109, i32* %8, align 4
  br label %114

110:                                              ; preds = %95
  br label %111

111:                                              ; preds = %110
  %112 = load i32, i32* %4, align 4
  %113 = add nsw i32 %112, 1
  store i32 %113, i32* %4, align 4
  br label %91

114:                                              ; preds = %101, %91
  %115 = load i32, i32* %8, align 4
  %116 = icmp eq i32 %115, 0
  br i1 %116, label %117, label %119

117:                                              ; preds = %114
  %118 = call i32 (i8*, ...) @printf(i8* getelementptr inbounds ([4 x i8], [4 x i8]* @.str.3, i64 0, i64 0))
  br label %119

119:                                              ; preds = %117, %114
  %120 = load i32, i32* %2, align 4
  %121 = add nsw i32 %120, -1
  store i32 %121, i32* %2, align 4
  br label %12

122:                                              ; preds = %12
  %123 = load i32, i32* %1, align 4
  ret i32 %123
}

declare dso_local i32 @__isoc99_scanf(i8*, ...) #1

; Function Attrs: nounwind readonly
declare dso_local i64 @strlen(i8*) #2

declare dso_local i32 @printf(i8*, ...) #1


!llvm.module.flags = !{!0}
!llvm.ident = !{!1}

!0 = !{i32 1, !"wchar_size", i32 4}
!1 = !{!"clang version 10.0.0-4ubuntu1 "}
